target datalayout = "e-m:e-p270:32:32-p271:32:32-p272:64:64-i64:64-i128:128-f80:128-n8:16:32:64-S128"
target triple = "x86_64-pc-linux-gnu"

%"class.llvm::PseudoSourceValue" = type { ptr, i32, i32 }

; Function Attrs: mustprogress nounwind uwtable
define linkonce_odr hidden noundef zeroext i1 @_ZNK4llvm17PseudoSourceValue11isJumpTableEv(ptr noundef nonnull align 8 dereferenceable(16) %0) #0 comdat align 2 {
  %2 = alloca ptr, align 8
  store ptr %0, ptr %2, align 8
  %3 = load ptr, ptr %2, align 8
  %4 = getelementptr inbounds nuw %"class.llvm::PseudoSourceValue", ptr %3, i32 0, i32 1
  %5 = load i32, ptr %4, align 8
  %6 = icmp eq i32 %5, 2
  ret i1 %6
}

; Function Attrs: mustprogress nounwind uwtable
define linkonce_odr hidden noundef zeroext i1 @_ZNK4llvm17PseudoSourceValue14isConstantPoolEv(ptr noundef nonnull align 8 dereferenceable(16) %0) #0 comdat align 2 {
  %2 = alloca ptr, align 8
  store ptr %0, ptr %2, align 8
  %3 = load ptr, ptr %2, align 8
  %4 = getelementptr inbounds nuw %"class.llvm::PseudoSourceValue", ptr %3, i32 0, i32 1
  %5 = load i32, ptr %4, align 8
  %6 = icmp eq i32 %5, 3
  ret i1 %6
}

; Function Attrs: mustprogress nounwind uwtable
define linkonce_odr hidden noundef zeroext i1 @_ZNK4llvm17PseudoSourceValue5isGOTEv(ptr noundef nonnull align 8 dereferenceable(16) %0) #0 comdat align 2 {
  %2 = alloca ptr, align 8
  store ptr %0, ptr %2, align 8
  %3 = load ptr, ptr %2, align 8
  %4 = getelementptr inbounds nuw %"class.llvm::PseudoSourceValue", ptr %3, i32 0, i32 1
  %5 = load i32, ptr %4, align 8
  %6 = icmp eq i32 %5, 1
  ret i1 %6
}

; Function Attrs: mustprogress nounwind uwtable
define linkonce_odr hidden noundef zeroext i1 @_ZNK4llvm17PseudoSourceValue7isStackEv(ptr noundef nonnull align 8 dereferenceable(16) %0) #0 comdat align 2 {
  %2 = alloca ptr, align 8
  store ptr %0, ptr %2, align 8
  %3 = load ptr, ptr %2, align 8
  %4 = getelementptr inbounds nuw %"class.llvm::PseudoSourceValue", ptr %3, i32 0, i32 1
  %5 = load i32, ptr %4, align 8
  %6 = icmp eq i32 %5, 0
  ret i1 %6
}

; Function Attrs: mustprogress nounwind uwtable
define dso_local noundef zeroext i1 @_ZNK4llvm17PseudoSourceValue10isConstantEPKNS_16MachineFrameInfoE(ptr noundef nonnull align 8 dereferenceable(16) %0, ptr noundef %1) unnamed_addr #0 align 2 {
  %3 = alloca i1, align 1
  %4 = alloca ptr, align 8
  %5 = alloca ptr, align 8
  store ptr %0, ptr %4, align 8
  store ptr %1, ptr %5, align 8
  %6 = load ptr, ptr %4, align 8
  %7 = call noundef zeroext i1 @_ZNK4llvm17PseudoSourceValue7isStackEv(ptr noundef nonnull align 8 dereferenceable(16) %6)
  br i1 %7, label %8, label %9

8:                                                ; preds = %2
  store i1 false, ptr %3, align 1
  br label %17

9:                                                ; preds = %2
  %10 = call noundef zeroext i1 @_ZNK4llvm17PseudoSourceValue5isGOTEv(ptr noundef nonnull align 8 dereferenceable(16) %6)
  br i1 %10, label %15, label %11

11:                                               ; preds = %9
  %12 = call noundef zeroext i1 @_ZNK4llvm17PseudoSourceValue14isConstantPoolEv(ptr noundef nonnull align 8 dereferenceable(16) %6)
  br i1 %12, label %15, label %13

13:                                               ; preds = %11
  %14 = call noundef zeroext i1 @_ZNK4llvm17PseudoSourceValue11isJumpTableEv(ptr noundef nonnull align 8 dereferenceable(16) %6)
  br i1 %14, label %15, label %16

15:                                               ; preds = %13, %11, %9
  store i1 true, ptr %3, align 1
  br label %17

16:                                               ; preds = %13
  unreachable

17:                                               ; preds = %15, %8
  %18 = load i1, ptr %3, align 1
  ret i1 %18
}