; Function Attrs: mustprogress nofree norecurse nosync nounwind willreturn memory(argmem: read, inaccessiblemem: write) uwtable
define dso_local noundef zeroext i1 @_ZNK4llvm17PseudoSourceValue10isConstantEPKNS_16MachineFrameInfoE(ptr nocapture noundef nonnull readonly align 8 dereferenceable(16) %0, ptr nocapture readnone %1) unnamed_addr #3 align 2 {
  %3 = getelementptr inbounds nuw i8, ptr %0, i64 8
  %4 = load i32, ptr %3, align 8
  switch i32 %4, label %5 [
    i32 3, label %7
    i32 1, label %7
    i32 0, label %7
  ]

5:                                                ; preds = %2
  %6 = icmp eq i32 %4, 2
  tail call void @llvm.assume(i1 %6)
  br label %7

7:                                                ; preds = %2, %2, %2, %5
  %8 = icmp ne i32 %4, 0
  ret i1 %8
}